; Function Attrs: mustprogress uwtable
define void @_ZN2mu10ParserBase17DefinePostfixOprtERKNSt7__cxx1112basic_stringIcSt11char_traitsIcESaIcEEEPFddEb(ptr noundef nonnull align 8 dereferenceable(596) %0, ptr noundef nonnull align 8 dereferenceable(32) %1, ptr noundef %2, i1 noundef zeroext %3) local_unnamed_addr #7 align 2 personality ptr @__gxx_personality_v0 {
  %5 = alloca %"class.std::__cxx11::basic_string", align 8
  %6 = alloca %"class.mu::ParserCallback", align 8
  %7 = tail call noundef i64 @_ZNKSt7__cxx1112basic_stringIcSt11char_traitsIcESaIcEE6lengthEv(ptr noundef nonnull align 8 dereferenceable(32) %1) #23
  %8 = icmp ugt i64 %7, 100
  br i1 %8, label %9, label %20

9:                                                ; preds = %4
  call void @_ZNSt7__cxx1112basic_stringIcSt11char_traitsIcESaIcEEC1Ev(ptr noundef nonnull align 8 dereferenceable(32) %5) #23
  %10 = call ptr @__cxa_allocate_exception(i64 112) #23
  %11 = getelementptr inbounds i8, ptr %0, i64 120
  %12 = load ptr, ptr %11, align 8
  %13 = invoke noundef nonnull align 8 dereferenceable(32) ptr @_ZNK2mu17ParserTokenReader7GetExprB5cxx11Ev(ptr noundef nonnull align 8 dereferenceable(400) %12)
          to label %14 unwind label %16

14:                                               ; preds = %9
  invoke void @_ZN2mu11ParserErrorC1ENS_11EErrorCodesERKNSt7__cxx1112basic_stringIcSt11char_traitsIcESaIcEEES9_i(ptr noundef nonnull align 8 dereferenceable(112) %10, i32 noundef 36, ptr noundef nonnull align 8 dereferenceable(32) %5, ptr noundef nonnull align 8 dereferenceable(32) %13, i32 noundef -1)
          to label %15 unwind label %16

15:                                               ; preds = %14
  invoke void @__cxa_throw(ptr nonnull %10, ptr nonnull @_ZTIN2mu11ParserErrorE, ptr nonnull @_ZN2mu11ParserErrorD1Ev) #32
          to label %.noexc unwind label %18

.noexc:                                           ; preds = %15
  unreachable

16:                                               ; preds = %14, %9
  %17 = landingpad { ptr, i32 }
          cleanup
  call void @__cxa_free_exception(ptr %10) #23
  br label %.body

18:                                               ; preds = %15
  %19 = landingpad { ptr, i32 }
          cleanup
  br label %.body

.body:                                            ; preds = %16, %18
  %eh.lpad-body = phi { ptr, i32 } [ %19, %18 ], [ %17, %16 ]
  call void @_ZNSt7__cxx1112basic_stringIcSt11char_traitsIcESaIcEED1Ev(ptr noundef nonnull align 8 dereferenceable(32) %5) #23
  br label %27

20:                                               ; preds = %4
  call void @_ZN2mu14ParserCallbackC1EPFddEbiNS_8ECmdCodeE(ptr noundef nonnull align 8 dereferenceable(32) %6, ptr noundef %2, i1 noundef zeroext %3, i32 noundef 6, i32 noundef 31)
  %21 = invoke noundef ptr @_ZNK2mu10ParserBase14ValidOprtCharsEv(ptr noundef nonnull align 8 dereferenceable(596) %0)
          to label %22 unwind label %25

22:                                               ; preds = %20
  %23 = getelementptr inbounds i8, ptr %0, i64 176
  invoke void @_ZN2mu10ParserBase11AddCallbackERKNSt7__cxx1112basic_stringIcSt11char_traitsIcESaIcEEERKNS_14ParserCallbackERSt3mapIS6_S9_St4lessIS6_ESaISt4pairIS7_S9_EEEPKc(ptr noundef nonnull align 8 dereferenceable(596) %0, ptr noundef nonnull align 8 dereferenceable(32) %1, ptr noundef nonnull align 8 dereferenceable(32) %6, ptr noundef nonnull align 8 dereferenceable(48) %23, ptr noundef %21)
          to label %24 unwind label %25

24:                                               ; preds = %22
  call void @_ZN2mu14ParserCallbackD1Ev(ptr noundef nonnull align 8 dereferenceable(32) %6) #23
  ret void

25:                                               ; preds = %22, %20
  %26 = landingpad { ptr, i32 }
          cleanup
  call void @_ZN2mu14ParserCallbackD1Ev(ptr noundef nonnull align 8 dereferenceable(32) %6) #23
  br label %27

27:                                               ; preds = %25, %.body
  %.pn = phi { ptr, i32 } [ %26, %25 ], [ %eh.lpad-body, %.body ]
  resume { ptr, i32 } %.pn
}